target datalayout = "e-m:e-p270:32:32-p271:32:32-p272:64:64-i64:64-i128:128-f80:128-n8:16:32:64-S128"
target triple = "x86_64-pc-linux-gnu"

%struct.siphash = type { i64, i64, i64, i64, [8 x i8], ptr, i64 }

; Function Attrs: nounwind uwtable
define internal void @sip_round(ptr noundef %0, i32 noundef %1) #0 {
  %3 = alloca ptr, align 8
  %4 = alloca i32, align 4
  %5 = alloca i32, align 4
  store ptr %0, ptr %3, align 8, !tbaa !321
  store i32 %1, ptr %4, align 4, !tbaa !174
  call void @llvm.lifetime.start.p0(i64 4, ptr %5) #11
  store i32 0, ptr %5, align 4, !tbaa !174
  br label %6

6:                                                ; preds = %133, %2
  %7 = load i32, ptr %5, align 4, !tbaa !174
  %8 = load i32, ptr %4, align 4, !tbaa !174
  %9 = icmp slt i32 %7, %8
  br i1 %9, label %10, label %136

10:                                               ; preds = %6
  %11 = load ptr, ptr %3, align 8, !tbaa !321
  %12 = getelementptr inbounds nuw %struct.siphash, ptr %11, i32 0, i32 1
  %13 = load i64, ptr %12, align 8, !tbaa !325
  %14 = load ptr, ptr %3, align 8, !tbaa !321
  %15 = getelementptr inbounds nuw %struct.siphash, ptr %14, i32 0, i32 0
  %16 = load i64, ptr %15, align 8, !tbaa !323
  %17 = add i64 %16, %13
  store i64 %17, ptr %15, align 8, !tbaa !323
  %18 = load ptr, ptr %3, align 8, !tbaa !321
  %19 = getelementptr inbounds nuw %struct.siphash, ptr %18, i32 0, i32 1
  %20 = load i64, ptr %19, align 8, !tbaa !325
  %21 = shl i64 %20, 13
  %22 = load ptr, ptr %3, align 8, !tbaa !321
  %23 = getelementptr inbounds nuw %struct.siphash, ptr %22, i32 0, i32 1
  %24 = load i64, ptr %23, align 8, !tbaa !325
  %25 = lshr i64 %24, 51
  %26 = or i64 %21, %25
  %27 = load ptr, ptr %3, align 8, !tbaa !321
  %28 = getelementptr inbounds nuw %struct.siphash, ptr %27, i32 0, i32 1
  store i64 %26, ptr %28, align 8, !tbaa !325
  %29 = load ptr, ptr %3, align 8, !tbaa !321
  %30 = getelementptr inbounds nuw %struct.siphash, ptr %29, i32 0, i32 0
  %31 = load i64, ptr %30, align 8, !tbaa !323
  %32 = load ptr, ptr %3, align 8, !tbaa !321
  %33 = getelementptr inbounds nuw %struct.siphash, ptr %32, i32 0, i32 1
  %34 = load i64, ptr %33, align 8, !tbaa !325
  %35 = xor i64 %34, %31
  store i64 %35, ptr %33, align 8, !tbaa !325
  %36 = load ptr, ptr %3, align 8, !tbaa !321
  %37 = getelementptr inbounds nuw %struct.siphash, ptr %36, i32 0, i32 0
  %38 = load i64, ptr %37, align 8, !tbaa !323
  %39 = shl i64 %38, 32
  %40 = load ptr, ptr %3, align 8, !tbaa !321
  %41 = getelementptr inbounds nuw %struct.siphash, ptr %40, i32 0, i32 0
  %42 = load i64, ptr %41, align 8, !tbaa !323
  %43 = lshr i64 %42, 32
  %44 = or i64 %39, %43
  %45 = load ptr, ptr %3, align 8, !tbaa !321
  %46 = getelementptr inbounds nuw %struct.siphash, ptr %45, i32 0, i32 0
  store i64 %44, ptr %46, align 8, !tbaa !323
  %47 = load ptr, ptr %3, align 8, !tbaa !321
  %48 = getelementptr inbounds nuw %struct.siphash, ptr %47, i32 0, i32 3
  %49 = load i64, ptr %48, align 8, !tbaa !327
  %50 = load ptr, ptr %3, align 8, !tbaa !321
  %51 = getelementptr inbounds nuw %struct.siphash, ptr %50, i32 0, i32 2
  %52 = load i64, ptr %51, align 8, !tbaa !326
  %53 = add i64 %52, %49
  store i64 %53, ptr %51, align 8, !tbaa !326
  %54 = load ptr, ptr %3, align 8, !tbaa !321
  %55 = getelementptr inbounds nuw %struct.siphash, ptr %54, i32 0, i32 3
  %56 = load i64, ptr %55, align 8, !tbaa !327
  %57 = shl i64 %56, 16
  %58 = load ptr, ptr %3, align 8, !tbaa !321
  %59 = getelementptr inbounds nuw %struct.siphash, ptr %58, i32 0, i32 3
  %60 = load i64, ptr %59, align 8, !tbaa !327
  %61 = lshr i64 %60, 48
  %62 = or i64 %57, %61
  %63 = load ptr, ptr %3, align 8, !tbaa !321
  %64 = getelementptr inbounds nuw %struct.siphash, ptr %63, i32 0, i32 3
  store i64 %62, ptr %64, align 8, !tbaa !327
  %65 = load ptr, ptr %3, align 8, !tbaa !321
  %66 = getelementptr inbounds nuw %struct.siphash, ptr %65, i32 0, i32 2
  %67 = load i64, ptr %66, align 8, !tbaa !326
  %68 = load ptr, ptr %3, align 8, !tbaa !321
  %69 = getelementptr inbounds nuw %struct.siphash, ptr %68, i32 0, i32 3
  %70 = load i64, ptr %69, align 8, !tbaa !327
  %71 = xor i64 %70, %67
  store i64 %71, ptr %69, align 8, !tbaa !327
  %72 = load ptr, ptr %3, align 8, !tbaa !321
  %73 = getelementptr inbounds nuw %struct.siphash, ptr %72, i32 0, i32 3
  %74 = load i64, ptr %73, align 8, !tbaa !327
  %75 = load ptr, ptr %3, align 8, !tbaa !321
  %76 = getelementptr inbounds nuw %struct.siphash, ptr %75, i32 0, i32 0
  %77 = load i64, ptr %76, align 8, !tbaa !323
  %78 = add i64 %77, %74
  store i64 %78, ptr %76, align 8, !tbaa !323
  %79 = load ptr, ptr %3, align 8, !tbaa !321
  %80 = getelementptr inbounds nuw %struct.siphash, ptr %79, i32 0, i32 3
  %81 = load i64, ptr %80, align 8, !tbaa !327
  %82 = shl i64 %81, 21
  %83 = load ptr, ptr %3, align 8, !tbaa !321
  %84 = getelementptr inbounds nuw %struct.siphash, ptr %83, i32 0, i32 3
  %85 = load i64, ptr %84, align 8, !tbaa !327
  %86 = lshr i64 %85, 43
  %87 = or i64 %82, %86
  %88 = load ptr, ptr %3, align 8, !tbaa !321
  %89 = getelementptr inbounds nuw %struct.siphash, ptr %88, i32 0, i32 3
  store i64 %87, ptr %89, align 8, !tbaa !327
  %90 = load ptr, ptr %3, align 8, !tbaa !321
  %91 = getelementptr inbounds nuw %struct.siphash, ptr %90, i32 0, i32 0
  %92 = load i64, ptr %91, align 8, !tbaa !323
  %93 = load ptr, ptr %3, align 8, !tbaa !321
  %94 = getelementptr inbounds nuw %struct.siphash, ptr %93, i32 0, i32 3
  %95 = load i64, ptr %94, align 8, !tbaa !327
  %96 = xor i64 %95, %92
  store i64 %96, ptr %94, align 8, !tbaa !327
  %97 = load ptr, ptr %3, align 8, !tbaa !321
  %98 = getelementptr inbounds nuw %struct.siphash, ptr %97, i32 0, i32 1
  %99 = load i64, ptr %98, align 8, !tbaa !325
  %100 = load ptr, ptr %3, align 8, !tbaa !321
  %101 = getelementptr inbounds nuw %struct.siphash, ptr %100, i32 0, i32 2
  %102 = load i64, ptr %101, align 8, !tbaa !326
  %103 = add i64 %102, %99
  store i64 %103, ptr %101, align 8, !tbaa !326
  %104 = load ptr, ptr %3, align 8, !tbaa !321
  %105 = getelementptr inbounds nuw %struct.siphash, ptr %104, i32 0, i32 1
  %106 = load i64, ptr %105, align 8, !tbaa !325
  %107 = shl i64 %106, 17
  %108 = load ptr, ptr %3, align 8, !tbaa !321
  %109 = getelementptr inbounds nuw %struct.siphash, ptr %108, i32 0, i32 1
  %110 = load i64, ptr %109, align 8, !tbaa !325
  %111 = lshr i64 %110, 47
  %112 = or i64 %107, %111
  %113 = load ptr, ptr %3, align 8, !tbaa !321
  %114 = getelementptr inbounds nuw %struct.siphash, ptr %113, i32 0, i32 1
  store i64 %112, ptr %114, align 8, !tbaa !325
  %115 = load ptr, ptr %3, align 8, !tbaa !321
  %116 = getelementptr inbounds nuw %struct.siphash, ptr %115, i32 0, i32 2
  %117 = load i64, ptr %116, align 8, !tbaa !326
  %118 = load ptr, ptr %3, align 8, !tbaa !321
  %119 = getelementptr inbounds nuw %struct.siphash, ptr %118, i32 0, i32 1
  %120 = load i64, ptr %119, align 8, !tbaa !325
  %121 = xor i64 %120, %117
  store i64 %121, ptr %119, align 8, !tbaa !325
  %122 = load ptr, ptr %3, align 8, !tbaa !321
  %123 = getelementptr inbounds nuw %struct.siphash, ptr %122, i32 0, i32 2
  %124 = load i64, ptr %123, align 8, !tbaa !326
  %125 = shl i64 %124, 32
  %126 = load ptr, ptr %3, align 8, !tbaa !321
  %127 = getelementptr inbounds nuw %struct.siphash, ptr %126, i32 0, i32 2
  %128 = load i64, ptr %127, align 8, !tbaa !326
  %129 = lshr i64 %128, 32
  %130 = or i64 %125, %129
  %131 = load ptr, ptr %3, align 8, !tbaa !321
  %132 = getelementptr inbounds nuw %struct.siphash, ptr %131, i32 0, i32 2
  store i64 %130, ptr %132, align 8, !tbaa !326
  br label %133

133:                                              ; preds = %10
  %134 = load i32, ptr %5, align 4, !tbaa !174
  %135 = add i32 %134, 1
  store i32 %135, ptr %5, align 4, !tbaa !174
  br label %6, !llvm.loop !333

136:                                              ; preds = %6
  call void @llvm.lifetime.end.p0(i64 4, ptr %5) #11
  ret void
}

; Function Attrs: nounwind uwtable
define internal i64 @sip24_final(ptr noundef %0) #0 {
  %2 = alloca ptr, align 8
  %3 = alloca i8, align 1
  %4 = alloca i64, align 8
  store ptr %0, ptr %2, align 8, !tbaa !321
  call void @llvm.lifetime.start.p0(i64 1, ptr %3) #11
  %5 = load ptr, ptr %2, align 8, !tbaa !321
  %6 = getelementptr inbounds nuw %struct.siphash, ptr %5, i32 0, i32 5
  %7 = load ptr, ptr %6, align 8, !tbaa !328
  %8 = load ptr, ptr %2, align 8, !tbaa !321
  %9 = getelementptr inbounds nuw %struct.siphash, ptr %8, i32 0, i32 4
  %10 = getelementptr inbounds [8 x i8], ptr %9, i64 0, i64 0
  %11 = ptrtoint ptr %7 to i64
  %12 = ptrtoint ptr %10 to i64
  %13 = sub i64 %11, %12
  %14 = trunc i64 %13 to i8
  store i8 %14, ptr %3, align 1, !tbaa !9
  call void @llvm.lifetime.start.p0(i64 8, ptr %4) #11
  %15 = load ptr, ptr %2, align 8, !tbaa !321
  %16 = getelementptr inbounds nuw %struct.siphash, ptr %15, i32 0, i32 6
  %17 = load i64, ptr %16, align 8, !tbaa !329
  %18 = load i8, ptr %3, align 1, !tbaa !9
  %19 = sext i8 %18 to i64
  %20 = add i64 %17, %19
  %21 = shl i64 %20, 56
  store i64 %21, ptr %4, align 8, !tbaa !172
  %22 = load i8, ptr %3, align 1, !tbaa !9
  %23 = sext i8 %22 to i32
  switch i32 %23, label %87 [
    i32 7, label %24
    i32 6, label %33
    i32 5, label %42
    i32 4, label %51
    i32 3, label %60
    i32 2, label %69
    i32 1, label %78
    i32 0, label %87
  ]

24:                                               ; preds = %1
  %25 = load ptr, ptr %2, align 8, !tbaa !321
  %26 = getelementptr inbounds nuw %struct.siphash, ptr %25, i32 0, i32 4
  %27 = getelementptr [8 x i8], ptr %26, i64 0, i64 6
  %28 = load i8, ptr %27, align 2, !tbaa !9
  %29 = zext i8 %28 to i64
  %30 = shl i64 %29, 48
  %31 = load i64, ptr %4, align 8, !tbaa !172
  %32 = or i64 %31, %30
  store i64 %32, ptr %4, align 8, !tbaa !172
  br label %33

33:                                               ; preds = %1, %24
  %34 = load ptr, ptr %2, align 8, !tbaa !321
  %35 = getelementptr inbounds nuw %struct.siphash, ptr %34, i32 0, i32 4
  %36 = getelementptr [8 x i8], ptr %35, i64 0, i64 5
  %37 = load i8, ptr %36, align 1, !tbaa !9
  %38 = zext i8 %37 to i64
  %39 = shl i64 %38, 40
  %40 = load i64, ptr %4, align 8, !tbaa !172
  %41 = or i64 %40, %39
  store i64 %41, ptr %4, align 8, !tbaa !172
  br label %42

42:                                               ; preds = %1, %33
  %43 = load ptr, ptr %2, align 8, !tbaa !321
  %44 = getelementptr inbounds nuw %struct.siphash, ptr %43, i32 0, i32 4
  %45 = getelementptr [8 x i8], ptr %44, i64 0, i64 4
  %46 = load i8, ptr %45, align 4, !tbaa !9
  %47 = zext i8 %46 to i64
  %48 = shl i64 %47, 32
  %49 = load i64, ptr %4, align 8, !tbaa !172
  %50 = or i64 %49, %48
  store i64 %50, ptr %4, align 8, !tbaa !172
  br label %51

51:                                               ; preds = %1, %42
  %52 = load ptr, ptr %2, align 8, !tbaa !321
  %53 = getelementptr inbounds nuw %struct.siphash, ptr %52, i32 0, i32 4
  %54 = getelementptr [8 x i8], ptr %53, i64 0, i64 3
  %55 = load i8, ptr %54, align 1, !tbaa !9
  %56 = zext i8 %55 to i64
  %57 = shl i64 %56, 24
  %58 = load i64, ptr %4, align 8, !tbaa !172
  %59 = or i64 %58, %57
  store i64 %59, ptr %4, align 8, !tbaa !172
  br label %60

60:                                               ; preds = %1, %51
  %61 = load ptr, ptr %2, align 8, !tbaa !321
  %62 = getelementptr inbounds nuw %struct.siphash, ptr %61, i32 0, i32 4
  %63 = getelementptr [8 x i8], ptr %62, i64 0, i64 2
  %64 = load i8, ptr %63, align 2, !tbaa !9
  %65 = zext i8 %64 to i64
  %66 = shl i64 %65, 16
  %67 = load i64, ptr %4, align 8, !tbaa !172
  %68 = or i64 %67, %66
  store i64 %68, ptr %4, align 8, !tbaa !172
  br label %69

69:                                               ; preds = %1, %60
  %70 = load ptr, ptr %2, align 8, !tbaa !321
  %71 = getelementptr inbounds nuw %struct.siphash, ptr %70, i32 0, i32 4
  %72 = getelementptr [8 x i8], ptr %71, i64 0, i64 1
  %73 = load i8, ptr %72, align 1, !tbaa !9
  %74 = zext i8 %73 to i64
  %75 = shl i64 %74, 8
  %76 = load i64, ptr %4, align 8, !tbaa !172
  %77 = or i64 %76, %75
  store i64 %77, ptr %4, align 8, !tbaa !172
  br label %78

78:                                               ; preds = %1, %69
  %79 = load ptr, ptr %2, align 8, !tbaa !321
  %80 = getelementptr inbounds nuw %struct.siphash, ptr %79, i32 0, i32 4
  %81 = getelementptr [8 x i8], ptr %80, i64 0, i64 0
  %82 = load i8, ptr %81, align 8, !tbaa !9
  %83 = zext i8 %82 to i64
  %84 = shl i64 %83, 0
  %85 = load i64, ptr %4, align 8, !tbaa !172
  %86 = or i64 %85, %84
  store i64 %86, ptr %4, align 8, !tbaa !172
  br label %87

87:                                               ; preds = %1, %78, %1
  %88 = load i64, ptr %4, align 8, !tbaa !172
  %89 = load ptr, ptr %2, align 8, !tbaa !321
  %90 = getelementptr inbounds nuw %struct.siphash, ptr %89, i32 0, i32 3
  %91 = load i64, ptr %90, align 8, !tbaa !327
  %92 = xor i64 %91, %88
  store i64 %92, ptr %90, align 8, !tbaa !327
  %93 = load ptr, ptr %2, align 8, !tbaa !321
  call void @sip_round(ptr noundef %93, i32 noundef 2)
  %94 = load i64, ptr %4, align 8, !tbaa !172
  %95 = load ptr, ptr %2, align 8, !tbaa !321
  %96 = getelementptr inbounds nuw %struct.siphash, ptr %95, i32 0, i32 0
  %97 = load i64, ptr %96, align 8, !tbaa !323
  %98 = xor i64 %97, %94
  store i64 %98, ptr %96, align 8, !tbaa !323
  %99 = load ptr, ptr %2, align 8, !tbaa !321
  %100 = getelementptr inbounds nuw %struct.siphash, ptr %99, i32 0, i32 2
  %101 = load i64, ptr %100, align 8, !tbaa !326
  %102 = xor i64 %101, 255
  store i64 %102, ptr %100, align 8, !tbaa !326
  %103 = load ptr, ptr %2, align 8, !tbaa !321
  call void @sip_round(ptr noundef %103, i32 noundef 4)
  %104 = load ptr, ptr %2, align 8, !tbaa !321
  %105 = getelementptr inbounds nuw %struct.siphash, ptr %104, i32 0, i32 0
  %106 = load i64, ptr %105, align 8, !tbaa !323
  %107 = load ptr, ptr %2, align 8, !tbaa !321
  %108 = getelementptr inbounds nuw %struct.siphash, ptr %107, i32 0, i32 1
  %109 = load i64, ptr %108, align 8, !tbaa !325
  %110 = xor i64 %106, %109
  %111 = load ptr, ptr %2, align 8, !tbaa !321
  %112 = getelementptr inbounds nuw %struct.siphash, ptr %111, i32 0, i32 2
  %113 = load i64, ptr %112, align 8, !tbaa !326
  %114 = xor i64 %110, %113
  %115 = load ptr, ptr %2, align 8, !tbaa !321
  %116 = getelementptr inbounds nuw %struct.siphash, ptr %115, i32 0, i32 3
  %117 = load i64, ptr %116, align 8, !tbaa !327
  %118 = xor i64 %114, %117
  call void @llvm.lifetime.end.p0(i64 8, ptr %4) #11
  call void @llvm.lifetime.end.p0(i64 1, ptr %3) #11
  ret i64 %118
}